
stm32g030xx_drivers.elf:     file format elf32-littlearm

Sections:
Idx Name          Size      VMA       LMA       File off  Algn
  0 .isr_vector   000000bc  08000000  08000000  00001000  2**0
                  CONTENTS, ALLOC, LOAD, READONLY, DATA
  1 .text         000008c4  080000bc  080000bc  000010bc  2**2
                  CONTENTS, ALLOC, LOAD, READONLY, CODE
  2 .rodata       0000000c  08000980  08000980  00001980  2**2
                  CONTENTS, ALLOC, LOAD, READONLY, DATA
  3 .ARM.extab    00000000  0800098c  0800098c  00001994  2**0
                  CONTENTS
  4 .ARM          00000000  0800098c  0800098c  00001994  2**0
                  CONTENTS
  5 .preinit_array 00000000  0800098c  08000994  00001994  2**0
                  CONTENTS, ALLOC, LOAD, DATA
  6 .init_array   00000004  0800098c  0800098c  0000198c  2**2
                  CONTENTS, ALLOC, LOAD, READONLY, DATA
  7 .fini_array   00000004  08000990  08000990  00001990  2**2
                  CONTENTS, ALLOC, LOAD, READONLY, DATA
  8 .data         00000000  20000000  20000000  00001994  2**0
                  CONTENTS, ALLOC, LOAD, DATA
  9 .bss          0000001c  20000000  08000994  00002000  2**2
                  ALLOC
 10 ._user_heap_stack 00000604  2000001c  08000994  0000201c  2**0
                  ALLOC
 11 .ARM.attributes 00000028  00000000  00000000  00001994  2**0
                  CONTENTS, READONLY
 12 .debug_info   000010d2  00000000  00000000  000019bc  2**0
                  CONTENTS, READONLY, DEBUGGING, OCTETS
 13 .debug_abbrev 000003a9  00000000  00000000  00002a8e  2**0
                  CONTENTS, READONLY, DEBUGGING, OCTETS
 14 .debug_aranges 00000138  00000000  00000000  00002e38  2**3
                  CONTENTS, READONLY, DEBUGGING, OCTETS
 15 .debug_rnglists 000000db  00000000  00000000  00002f70  2**0
                  CONTENTS, READONLY, DEBUGGING, OCTETS
 16 .debug_line   00001191  00000000  00000000  0000304b  2**0
                  CONTENTS, READONLY, DEBUGGING, OCTETS
 17 .debug_str    000006b2  00000000  00000000  000041dc  2**0
                  CONTENTS, READONLY, DEBUGGING, OCTETS
 18 .comment      00000043  00000000  00000000  0000488e  2**0
                  CONTENTS, READONLY
 19 .debug_frame  00000380  00000000  00000000  000048d4  2**2
                  CONTENTS, READONLY, DEBUGGING, OCTETS
 20 .debug_line_str 00000073  00000000  00000000  00004c54  2**0
                  CONTENTS, READONLY, DEBUGGING, OCTETS

Disassembly of section .text:

080000bc <__do_global_dtors_aux>:
 80000bc:	b510      	push	{r4, lr}
 80000be:	4c06      	ldr	r4, [pc, #24]	@ (80000d8 <__do_global_dtors_aux+0x1c>)
 80000c0:	7823      	ldrb	r3, [r4, #0]
 80000c2:	2b00      	cmp	r3, #0
 80000c4:	d107      	bne.n	80000d6 <__do_global_dtors_aux+0x1a>
 80000c6:	4b05      	ldr	r3, [pc, #20]	@ (80000dc <__do_global_dtors_aux+0x20>)
 80000c8:	2b00      	cmp	r3, #0
 80000ca:	d002      	beq.n	80000d2 <__do_global_dtors_aux+0x16>
 80000cc:	4804      	ldr	r0, [pc, #16]	@ (80000e0 <__do_global_dtors_aux+0x24>)
 80000ce:	e000      	b.n	80000d2 <__do_global_dtors_aux+0x16>
 80000d0:	bf00      	nop
 80000d2:	2301      	movs	r3, #1
 80000d4:	7023      	strb	r3, [r4, #0]
 80000d6:	bd10      	pop	{r4, pc}
 80000d8:	20000000 	.word	0x20000000
 80000dc:	00000000 	.word	0x00000000
 80000e0:	08000968 	.word	0x08000968

080000e4 <frame_dummy>:
 80000e4:	4b04      	ldr	r3, [pc, #16]	@ (80000f8 <frame_dummy+0x14>)
 80000e6:	b510      	push	{r4, lr}
 80000e8:	2b00      	cmp	r3, #0
 80000ea:	d003      	beq.n	80000f4 <frame_dummy+0x10>
 80000ec:	4903      	ldr	r1, [pc, #12]	@ (80000fc <frame_dummy+0x18>)
 80000ee:	4804      	ldr	r0, [pc, #16]	@ (8000100 <frame_dummy+0x1c>)
 80000f0:	e000      	b.n	80000f4 <frame_dummy+0x10>
 80000f2:	bf00      	nop
 80000f4:	bd10      	pop	{r4, pc}
 80000f6:	46c0      	nop			@ (mov r8, r8)
 80000f8:	00000000 	.word	0x00000000
 80000fc:	20000004 	.word	0x20000004
 8000100:	08000968 	.word	0x08000968

08000104 <strlen>:
 8000104:	2300      	movs	r3, #0
 8000106:	5cc2      	ldrb	r2, [r0, r3]
 8000108:	3301      	adds	r3, #1
 800010a:	2a00      	cmp	r2, #0
 800010c:	d1fb      	bne.n	8000106 <strlen+0x2>
 800010e:	1e58      	subs	r0, r3, #1
 8000110:	4770      	bx	lr
	...

08000114 <GPIO_Init>:
/**
 * @brief  Initializes the GPIO pin with the specified configuration.
 * @param  pGPIOHandle: Pointer to the GPIO handle structure containing the configuration.
 * @retval None
 */
void GPIO_Init(GPIO_Handle_t *pGPIOHandle){
 8000114:	b5f0      	push	{r4, r5, r6, r7, lr}
 8000116:	b087      	sub	sp, #28
 8000118:	af00      	add	r7, sp, #0
 800011a:	6078      	str	r0, [r7, #4]
	uint32_t temp = 0; // Temporary register variable
 800011c:	2300      	movs	r3, #0
 800011e:	617b      	str	r3, [r7, #20]

	// enable the peripheral clock
	GPIO_PeriClkCtrl(pGPIOHandle->pGPIOx, ENABLE);
 8000120:	687b      	ldr	r3, [r7, #4]
 8000122:	681b      	ldr	r3, [r3, #0]
 8000124:	2101      	movs	r1, #1
 8000126:	0018      	movs	r0, r3
 8000128:	f000 f994 	bl	8000454 <GPIO_PeriClkCtrl>

	// Configure GPIO Mode
	if (pGPIOHandle->GPIO_PinConfig.GPIO_Mode <= GPIO_MODE_ANALOG) {
 800012c:	687b      	ldr	r3, [r7, #4]
 800012e:	795b      	ldrb	r3, [r3, #5]
 8000130:	2b03      	cmp	r3, #3
 8000132:	d820      	bhi.n	8000176 <GPIO_Init+0x62>
		// Non-interrupt mode (Input, Output, Alternate Function, Analog)
		temp = (pGPIOHandle->GPIO_PinConfig.GPIO_Mode
 8000134:	687b      	ldr	r3, [r7, #4]
 8000136:	795b      	ldrb	r3, [r3, #5]
 8000138:	001a      	movs	r2, r3
				<< (2 * pGPIOHandle->GPIO_PinConfig.GPIO_PinNumber));
 800013a:	687b      	ldr	r3, [r7, #4]
 800013c:	791b      	ldrb	r3, [r3, #4]
 800013e:	005b      	lsls	r3, r3, #1
 8000140:	409a      	lsls	r2, r3
 8000142:	0013      	movs	r3, r2
		temp = (pGPIOHandle->GPIO_PinConfig.GPIO_Mode
 8000144:	617b      	str	r3, [r7, #20]
		pGPIOHandle->pGPIOx->MODER &= ~(0x3
 8000146:	687b      	ldr	r3, [r7, #4]
 8000148:	681b      	ldr	r3, [r3, #0]
 800014a:	681a      	ldr	r2, [r3, #0]
				<< (2 * pGPIOHandle->GPIO_PinConfig.GPIO_PinNumber)); // Clear MODER bits
 800014c:	687b      	ldr	r3, [r7, #4]
 800014e:	791b      	ldrb	r3, [r3, #4]
 8000150:	005b      	lsls	r3, r3, #1
 8000152:	2103      	movs	r1, #3
 8000154:	4099      	lsls	r1, r3
 8000156:	000b      	movs	r3, r1
		pGPIOHandle->pGPIOx->MODER &= ~(0x3
 8000158:	43db      	mvns	r3, r3
 800015a:	0019      	movs	r1, r3
 800015c:	687b      	ldr	r3, [r7, #4]
 800015e:	681b      	ldr	r3, [r3, #0]
 8000160:	400a      	ands	r2, r1
 8000162:	601a      	str	r2, [r3, #0]
		pGPIOHandle->pGPIOx->MODER |= temp; // Set new mode
 8000164:	687b      	ldr	r3, [r7, #4]
 8000166:	681b      	ldr	r3, [r3, #0]
 8000168:	6819      	ldr	r1, [r3, #0]
 800016a:	687b      	ldr	r3, [r7, #4]
 800016c:	681b      	ldr	r3, [r3, #0]
 800016e:	697a      	ldr	r2, [r7, #20]
 8000170:	430a      	orrs	r2, r1
 8000172:	601a      	str	r2, [r3, #0]
 8000174:	e0cd      	b.n	8000312 <GPIO_Init+0x1fe>
	} else {
		// Interrupt mode (to be implemented)
		// Configure the MODER register to input mode for the corresponding pin
		pGPIOHandle->pGPIOx->MODER &= ~(0x3 << (2 * pGPIOHandle->GPIO_PinConfig.GPIO_PinNumber));
 8000176:	687b      	ldr	r3, [r7, #4]
 8000178:	681b      	ldr	r3, [r3, #0]
 800017a:	681a      	ldr	r2, [r3, #0]
 800017c:	687b      	ldr	r3, [r7, #4]
 800017e:	791b      	ldrb	r3, [r3, #4]
 8000180:	005b      	lsls	r3, r3, #1
 8000182:	2103      	movs	r1, #3
 8000184:	4099      	lsls	r1, r3
 8000186:	000b      	movs	r3, r1
 8000188:	43db      	mvns	r3, r3
 800018a:	0019      	movs	r1, r3
 800018c:	687b      	ldr	r3, [r7, #4]
 800018e:	681b      	ldr	r3, [r3, #0]
 8000190:	400a      	ands	r2, r1
 8000192:	601a      	str	r2, [r3, #0]

		if(pGPIOHandle->GPIO_PinConfig.GPIO_Mode == GPIO_MODE_INT_FT){
 8000194:	687b      	ldr	r3, [r7, #4]
 8000196:	795b      	ldrb	r3, [r3, #5]
 8000198:	2b04      	cmp	r3, #4
 800019a:	d117      	bne.n	80001cc <GPIO_Init+0xb8>
			//1. Config FTSR
			EXTI->FTSR1 |= (1 << pGPIOHandle->GPIO_PinConfig.GPIO_PinNumber);
 800019c:	4ba8      	ldr	r3, [pc, #672]	@ (8000440 <GPIO_Init+0x32c>)
 800019e:	685a      	ldr	r2, [r3, #4]
 80001a0:	687b      	ldr	r3, [r7, #4]
 80001a2:	791b      	ldrb	r3, [r3, #4]
 80001a4:	0019      	movs	r1, r3
 80001a6:	2301      	movs	r3, #1
 80001a8:	408b      	lsls	r3, r1
 80001aa:	0019      	movs	r1, r3
 80001ac:	4ba4      	ldr	r3, [pc, #656]	@ (8000440 <GPIO_Init+0x32c>)
 80001ae:	430a      	orrs	r2, r1
 80001b0:	605a      	str	r2, [r3, #4]
			// Clear the corresponding RTSR bit as We want the falling edge so to make sure
			EXTI->RTSR1 &= ~(1 << pGPIOHandle->GPIO_PinConfig.GPIO_PinNumber);
 80001b2:	4ba3      	ldr	r3, [pc, #652]	@ (8000440 <GPIO_Init+0x32c>)
 80001b4:	681a      	ldr	r2, [r3, #0]
 80001b6:	687b      	ldr	r3, [r7, #4]
 80001b8:	791b      	ldrb	r3, [r3, #4]
 80001ba:	0019      	movs	r1, r3
 80001bc:	2301      	movs	r3, #1
 80001be:	408b      	lsls	r3, r1
 80001c0:	43db      	mvns	r3, r3
 80001c2:	0019      	movs	r1, r3
 80001c4:	4b9e      	ldr	r3, [pc, #632]	@ (8000440 <GPIO_Init+0x32c>)
 80001c6:	400a      	ands	r2, r1
 80001c8:	601a      	str	r2, [r3, #0]
 80001ca:	e035      	b.n	8000238 <GPIO_Init+0x124>
		} else if (pGPIOHandle->GPIO_PinConfig.GPIO_Mode == GPIO_MODE_INT_RT){
 80001cc:	687b      	ldr	r3, [r7, #4]
 80001ce:	795b      	ldrb	r3, [r3, #5]
 80001d0:	2b05      	cmp	r3, #5
 80001d2:	d117      	bne.n	8000204 <GPIO_Init+0xf0>
			//1. Config RTSR
			EXTI->RTSR1 |= (1 << pGPIOHandle->GPIO_PinConfig.GPIO_PinNumber);
 80001d4:	4b9a      	ldr	r3, [pc, #616]	@ (8000440 <GPIO_Init+0x32c>)
 80001d6:	681a      	ldr	r2, [r3, #0]
 80001d8:	687b      	ldr	r3, [r7, #4]
 80001da:	791b      	ldrb	r3, [r3, #4]
 80001dc:	0019      	movs	r1, r3
 80001de:	2301      	movs	r3, #1
 80001e0:	408b      	lsls	r3, r1
 80001e2:	0019      	movs	r1, r3
 80001e4:	4b96      	ldr	r3, [pc, #600]	@ (8000440 <GPIO_Init+0x32c>)
 80001e6:	430a      	orrs	r2, r1
 80001e8:	601a      	str	r2, [r3, #0]
			EXTI->FTSR1 &= ~(1 << pGPIOHandle->GPIO_PinConfig.GPIO_PinNumber);
 80001ea:	4b95      	ldr	r3, [pc, #596]	@ (8000440 <GPIO_Init+0x32c>)
 80001ec:	685a      	ldr	r2, [r3, #4]
 80001ee:	687b      	ldr	r3, [r7, #4]
 80001f0:	791b      	ldrb	r3, [r3, #4]
 80001f2:	0019      	movs	r1, r3
 80001f4:	2301      	movs	r3, #1
 80001f6:	408b      	lsls	r3, r1
 80001f8:	43db      	mvns	r3, r3
 80001fa:	0019      	movs	r1, r3
 80001fc:	4b90      	ldr	r3, [pc, #576]	@ (8000440 <GPIO_Init+0x32c>)
 80001fe:	400a      	ands	r2, r1
 8000200:	605a      	str	r2, [r3, #4]
 8000202:	e019      	b.n	8000238 <GPIO_Init+0x124>
		} else if (pGPIOHandle->GPIO_PinConfig.GPIO_Mode == GPIO_MODE_INT_RFT){
 8000204:	687b      	ldr	r3, [r7, #4]
 8000206:	795b      	ldrb	r3, [r3, #5]
 8000208:	2b06      	cmp	r3, #6
 800020a:	d115      	bne.n	8000238 <GPIO_Init+0x124>
			//1. Config FTSR and RTSR
			EXTI->FTSR1 |= (1 << pGPIOHandle->GPIO_PinConfig.GPIO_PinNumber);
 800020c:	4b8c      	ldr	r3, [pc, #560]	@ (8000440 <GPIO_Init+0x32c>)
 800020e:	685a      	ldr	r2, [r3, #4]
 8000210:	687b      	ldr	r3, [r7, #4]
 8000212:	791b      	ldrb	r3, [r3, #4]
 8000214:	0019      	movs	r1, r3
 8000216:	2301      	movs	r3, #1
 8000218:	408b      	lsls	r3, r1
 800021a:	0019      	movs	r1, r3
 800021c:	4b88      	ldr	r3, [pc, #544]	@ (8000440 <GPIO_Init+0x32c>)
 800021e:	430a      	orrs	r2, r1
 8000220:	605a      	str	r2, [r3, #4]
			EXTI->RTSR1 |= (1 << pGPIOHandle->GPIO_PinConfig.GPIO_PinNumber);
 8000222:	4b87      	ldr	r3, [pc, #540]	@ (8000440 <GPIO_Init+0x32c>)
 8000224:	681a      	ldr	r2, [r3, #0]
 8000226:	687b      	ldr	r3, [r7, #4]
 8000228:	791b      	ldrb	r3, [r3, #4]
 800022a:	0019      	movs	r1, r3
 800022c:	2301      	movs	r3, #1
 800022e:	408b      	lsls	r3, r1
 8000230:	0019      	movs	r1, r3
 8000232:	4b83      	ldr	r3, [pc, #524]	@ (8000440 <GPIO_Init+0x32c>)
 8000234:	430a      	orrs	r2, r1
 8000236:	601a      	str	r2, [r3, #0]
		}

	    // 2. Configure the GPIO port selection in EXTI register
	    uint8_t exti_idx = pGPIOHandle->GPIO_PinConfig.GPIO_PinNumber / 4; // EXTICR index (each EXTICR covers 4 pins)
 8000238:	687b      	ldr	r3, [r7, #4]
 800023a:	791a      	ldrb	r2, [r3, #4]
 800023c:	2313      	movs	r3, #19
 800023e:	18fb      	adds	r3, r7, r3
 8000240:	0892      	lsrs	r2, r2, #2
 8000242:	701a      	strb	r2, [r3, #0]
	    uint8_t exti_shift = (pGPIOHandle->GPIO_PinConfig.GPIO_PinNumber % 4) * 8; // Shift for the specific pin
 8000244:	687b      	ldr	r3, [r7, #4]
 8000246:	791b      	ldrb	r3, [r3, #4]
 8000248:	2203      	movs	r2, #3
 800024a:	4013      	ands	r3, r2
 800024c:	b2da      	uxtb	r2, r3
 800024e:	2312      	movs	r3, #18
 8000250:	18fb      	adds	r3, r7, r3
 8000252:	00d2      	lsls	r2, r2, #3
 8000254:	701a      	strb	r2, [r3, #0]
	    uint8_t gpio_port_code = GPIO_BASE_TO_PORT_CODE(pGPIOHandle->pGPIOx);
 8000256:	687b      	ldr	r3, [r7, #4]
 8000258:	681a      	ldr	r2, [r3, #0]
 800025a:	23a0      	movs	r3, #160	@ 0xa0
 800025c:	05db      	lsls	r3, r3, #23
 800025e:	429a      	cmp	r2, r3
 8000260:	d01d      	beq.n	800029e <GPIO_Init+0x18a>
 8000262:	687b      	ldr	r3, [r7, #4]
 8000264:	681b      	ldr	r3, [r3, #0]
 8000266:	4a77      	ldr	r2, [pc, #476]	@ (8000444 <GPIO_Init+0x330>)
 8000268:	4293      	cmp	r3, r2
 800026a:	d016      	beq.n	800029a <GPIO_Init+0x186>
 800026c:	687b      	ldr	r3, [r7, #4]
 800026e:	681b      	ldr	r3, [r3, #0]
 8000270:	4a75      	ldr	r2, [pc, #468]	@ (8000448 <GPIO_Init+0x334>)
 8000272:	4293      	cmp	r3, r2
 8000274:	d00f      	beq.n	8000296 <GPIO_Init+0x182>
 8000276:	687b      	ldr	r3, [r7, #4]
 8000278:	681b      	ldr	r3, [r3, #0]
 800027a:	4a74      	ldr	r2, [pc, #464]	@ (800044c <GPIO_Init+0x338>)
 800027c:	4293      	cmp	r3, r2
 800027e:	d008      	beq.n	8000292 <GPIO_Init+0x17e>
 8000280:	687b      	ldr	r3, [r7, #4]
 8000282:	681b      	ldr	r3, [r3, #0]
 8000284:	4a72      	ldr	r2, [pc, #456]	@ (8000450 <GPIO_Init+0x33c>)
 8000286:	4293      	cmp	r3, r2
 8000288:	d101      	bne.n	800028e <GPIO_Init+0x17a>
 800028a:	2305      	movs	r3, #5
 800028c:	e008      	b.n	80002a0 <GPIO_Init+0x18c>
 800028e:	23ff      	movs	r3, #255	@ 0xff
 8000290:	e006      	b.n	80002a0 <GPIO_Init+0x18c>
 8000292:	2303      	movs	r3, #3
 8000294:	e004      	b.n	80002a0 <GPIO_Init+0x18c>
 8000296:	2302      	movs	r3, #2
 8000298:	e002      	b.n	80002a0 <GPIO_Init+0x18c>
 800029a:	2301      	movs	r3, #1
 800029c:	e000      	b.n	80002a0 <GPIO_Init+0x18c>
 800029e:	2300      	movs	r3, #0
 80002a0:	2511      	movs	r5, #17
 80002a2:	197a      	adds	r2, r7, r5
 80002a4:	7013      	strb	r3, [r2, #0]

	    // Update the corresponding EXTICR register (EXTICR1 - EXTICR4)
		EXTI->EXTICR[exti_idx] &= ~(0xFF << exti_shift); // Clear existing bits
 80002a6:	4a66      	ldr	r2, [pc, #408]	@ (8000440 <GPIO_Init+0x32c>)
 80002a8:	2413      	movs	r4, #19
 80002aa:	193b      	adds	r3, r7, r4
 80002ac:	781b      	ldrb	r3, [r3, #0]
 80002ae:	3318      	adds	r3, #24
 80002b0:	009b      	lsls	r3, r3, #2
 80002b2:	589a      	ldr	r2, [r3, r2]
 80002b4:	2612      	movs	r6, #18
 80002b6:	19bb      	adds	r3, r7, r6
 80002b8:	781b      	ldrb	r3, [r3, #0]
 80002ba:	21ff      	movs	r1, #255	@ 0xff
 80002bc:	4099      	lsls	r1, r3
 80002be:	000b      	movs	r3, r1
 80002c0:	43db      	mvns	r3, r3
 80002c2:	0018      	movs	r0, r3
 80002c4:	495e      	ldr	r1, [pc, #376]	@ (8000440 <GPIO_Init+0x32c>)
 80002c6:	193b      	adds	r3, r7, r4
 80002c8:	781b      	ldrb	r3, [r3, #0]
 80002ca:	4002      	ands	r2, r0
 80002cc:	3318      	adds	r3, #24
 80002ce:	009b      	lsls	r3, r3, #2
 80002d0:	505a      	str	r2, [r3, r1]
		EXTI->EXTICR[exti_idx] |= (gpio_port_code << exti_shift); // Set the new port code
 80002d2:	4a5b      	ldr	r2, [pc, #364]	@ (8000440 <GPIO_Init+0x32c>)
 80002d4:	193b      	adds	r3, r7, r4
 80002d6:	781b      	ldrb	r3, [r3, #0]
 80002d8:	3318      	adds	r3, #24
 80002da:	009b      	lsls	r3, r3, #2
 80002dc:	589a      	ldr	r2, [r3, r2]
 80002de:	197b      	adds	r3, r7, r5
 80002e0:	7819      	ldrb	r1, [r3, #0]
 80002e2:	19bb      	adds	r3, r7, r6
 80002e4:	781b      	ldrb	r3, [r3, #0]
 80002e6:	4099      	lsls	r1, r3
 80002e8:	000b      	movs	r3, r1
 80002ea:	0018      	movs	r0, r3
 80002ec:	4954      	ldr	r1, [pc, #336]	@ (8000440 <GPIO_Init+0x32c>)
 80002ee:	193b      	adds	r3, r7, r4
 80002f0:	781b      	ldrb	r3, [r3, #0]
 80002f2:	4302      	orrs	r2, r0
 80002f4:	3318      	adds	r3, #24
 80002f6:	009b      	lsls	r3, r3, #2
 80002f8:	505a      	str	r2, [r3, r1]


		//3. Enable the EXTI interrupt delivery using the IMR(Interrupt Mask Register)
		EXTI->IMR1 |= (1 << pGPIOHandle->GPIO_PinConfig.GPIO_PinNumber);
 80002fa:	4a51      	ldr	r2, [pc, #324]	@ (8000440 <GPIO_Init+0x32c>)
 80002fc:	2380      	movs	r3, #128	@ 0x80
 80002fe:	58d3      	ldr	r3, [r2, r3]
 8000300:	687a      	ldr	r2, [r7, #4]
 8000302:	7912      	ldrb	r2, [r2, #4]
 8000304:	0011      	movs	r1, r2
 8000306:	2201      	movs	r2, #1
 8000308:	408a      	lsls	r2, r1
 800030a:	494d      	ldr	r1, [pc, #308]	@ (8000440 <GPIO_Init+0x32c>)
 800030c:	4313      	orrs	r3, r2
 800030e:	2280      	movs	r2, #128	@ 0x80
 8000310:	508b      	str	r3, [r1, r2]
	}
	temp = 0;
 8000312:	2300      	movs	r3, #0
 8000314:	617b      	str	r3, [r7, #20]

	// Configure GPIO Output Type
	if (pGPIOHandle->GPIO_PinConfig.GPIO_Mode == GPIO_MODE_OUTPUT) {
 8000316:	687b      	ldr	r3, [r7, #4]
 8000318:	795b      	ldrb	r3, [r3, #5]
 800031a:	2b01      	cmp	r3, #1
 800031c:	d11d      	bne.n	800035a <GPIO_Init+0x246>
		temp = (pGPIOHandle->GPIO_PinConfig.GPIO_OpType
 800031e:	687b      	ldr	r3, [r7, #4]
 8000320:	7a1b      	ldrb	r3, [r3, #8]
 8000322:	001a      	movs	r2, r3
				<< pGPIOHandle->GPIO_PinConfig.GPIO_PinNumber);
 8000324:	687b      	ldr	r3, [r7, #4]
 8000326:	791b      	ldrb	r3, [r3, #4]
 8000328:	409a      	lsls	r2, r3
 800032a:	0013      	movs	r3, r2
		temp = (pGPIOHandle->GPIO_PinConfig.GPIO_OpType
 800032c:	617b      	str	r3, [r7, #20]
		pGPIOHandle->pGPIOx->OTYPER &= ~(0x1
 800032e:	687b      	ldr	r3, [r7, #4]
 8000330:	681b      	ldr	r3, [r3, #0]
 8000332:	685a      	ldr	r2, [r3, #4]
				<< pGPIOHandle->GPIO_PinConfig.GPIO_PinNumber); // Clear OTYPER bit
 8000334:	687b      	ldr	r3, [r7, #4]
 8000336:	791b      	ldrb	r3, [r3, #4]
 8000338:	0019      	movs	r1, r3
 800033a:	2301      	movs	r3, #1
 800033c:	408b      	lsls	r3, r1
		pGPIOHandle->pGPIOx->OTYPER &= ~(0x1
 800033e:	43db      	mvns	r3, r3
 8000340:	0019      	movs	r1, r3
 8000342:	687b      	ldr	r3, [r7, #4]
 8000344:	681b      	ldr	r3, [r3, #0]
 8000346:	400a      	ands	r2, r1
 8000348:	605a      	str	r2, [r3, #4]
		pGPIOHandle->pGPIOx->OTYPER |= temp; // Set output type
 800034a:	687b      	ldr	r3, [r7, #4]
 800034c:	681b      	ldr	r3, [r3, #0]
 800034e:	6859      	ldr	r1, [r3, #4]
 8000350:	687b      	ldr	r3, [r7, #4]
 8000352:	681b      	ldr	r3, [r3, #0]
 8000354:	697a      	ldr	r2, [r7, #20]
 8000356:	430a      	orrs	r2, r1
 8000358:	605a      	str	r2, [r3, #4]
	}
	temp = 0;
 800035a:	2300      	movs	r3, #0
 800035c:	617b      	str	r3, [r7, #20]

	// Configure GPIO Speed
	temp = (pGPIOHandle->GPIO_PinConfig.GPIO_Speed
 800035e:	687b      	ldr	r3, [r7, #4]
 8000360:	799b      	ldrb	r3, [r3, #6]
 8000362:	001a      	movs	r2, r3
			<< (2 * pGPIOHandle->GPIO_PinConfig.GPIO_PinNumber));
 8000364:	687b      	ldr	r3, [r7, #4]
 8000366:	791b      	ldrb	r3, [r3, #4]
 8000368:	005b      	lsls	r3, r3, #1
 800036a:	409a      	lsls	r2, r3
 800036c:	0013      	movs	r3, r2
	temp = (pGPIOHandle->GPIO_PinConfig.GPIO_Speed
 800036e:	617b      	str	r3, [r7, #20]
	pGPIOHandle->pGPIOx->OSPEEDR &= ~(0x3
 8000370:	687b      	ldr	r3, [r7, #4]
 8000372:	681b      	ldr	r3, [r3, #0]
 8000374:	689a      	ldr	r2, [r3, #8]
			<< (2 * pGPIOHandle->GPIO_PinConfig.GPIO_PinNumber)); // Clear OSPEEDR bits
 8000376:	687b      	ldr	r3, [r7, #4]
 8000378:	791b      	ldrb	r3, [r3, #4]
 800037a:	005b      	lsls	r3, r3, #1
 800037c:	2103      	movs	r1, #3
 800037e:	4099      	lsls	r1, r3
 8000380:	000b      	movs	r3, r1
	pGPIOHandle->pGPIOx->OSPEEDR &= ~(0x3
 8000382:	43db      	mvns	r3, r3
 8000384:	0019      	movs	r1, r3
 8000386:	687b      	ldr	r3, [r7, #4]
 8000388:	681b      	ldr	r3, [r3, #0]
 800038a:	400a      	ands	r2, r1
 800038c:	609a      	str	r2, [r3, #8]
	pGPIOHandle->pGPIOx->OSPEEDR |= temp; // Set speed
 800038e:	687b      	ldr	r3, [r7, #4]
 8000390:	681b      	ldr	r3, [r3, #0]
 8000392:	6899      	ldr	r1, [r3, #8]
 8000394:	687b      	ldr	r3, [r7, #4]
 8000396:	681b      	ldr	r3, [r3, #0]
 8000398:	697a      	ldr	r2, [r7, #20]
 800039a:	430a      	orrs	r2, r1
 800039c:	609a      	str	r2, [r3, #8]
	temp = 0;
 800039e:	2300      	movs	r3, #0
 80003a0:	617b      	str	r3, [r7, #20]

	// Configure GPIO Pull-up/Pull-down
	temp = (pGPIOHandle->GPIO_PinConfig.GPIO_PuPdControl
 80003a2:	687b      	ldr	r3, [r7, #4]
 80003a4:	79db      	ldrb	r3, [r3, #7]
 80003a6:	001a      	movs	r2, r3
			<< (2 * pGPIOHandle->GPIO_PinConfig.GPIO_PinNumber));
 80003a8:	687b      	ldr	r3, [r7, #4]
 80003aa:	791b      	ldrb	r3, [r3, #4]
 80003ac:	005b      	lsls	r3, r3, #1
 80003ae:	409a      	lsls	r2, r3
 80003b0:	0013      	movs	r3, r2
	temp = (pGPIOHandle->GPIO_PinConfig.GPIO_PuPdControl
 80003b2:	617b      	str	r3, [r7, #20]
	pGPIOHandle->pGPIOx->PUPDR &= ~(0x3
 80003b4:	687b      	ldr	r3, [r7, #4]
 80003b6:	681b      	ldr	r3, [r3, #0]
 80003b8:	68da      	ldr	r2, [r3, #12]
			<< (2 * pGPIOHandle->GPIO_PinConfig.GPIO_PinNumber)); // Clear PUPDR bits
 80003ba:	687b      	ldr	r3, [r7, #4]
 80003bc:	791b      	ldrb	r3, [r3, #4]
 80003be:	005b      	lsls	r3, r3, #1
 80003c0:	2103      	movs	r1, #3
 80003c2:	4099      	lsls	r1, r3
 80003c4:	000b      	movs	r3, r1
	pGPIOHandle->pGPIOx->PUPDR &= ~(0x3
 80003c6:	43db      	mvns	r3, r3
 80003c8:	0019      	movs	r1, r3
 80003ca:	687b      	ldr	r3, [r7, #4]
 80003cc:	681b      	ldr	r3, [r3, #0]
 80003ce:	400a      	ands	r2, r1
 80003d0:	60da      	str	r2, [r3, #12]
	pGPIOHandle->pGPIOx->PUPDR |= temp; // Set pull-up/pull-down configuration
 80003d2:	687b      	ldr	r3, [r7, #4]
 80003d4:	681b      	ldr	r3, [r3, #0]
 80003d6:	68d9      	ldr	r1, [r3, #12]
 80003d8:	687b      	ldr	r3, [r7, #4]
 80003da:	681b      	ldr	r3, [r3, #0]
 80003dc:	697a      	ldr	r2, [r7, #20]
 80003de:	430a      	orrs	r2, r1
 80003e0:	60da      	str	r2, [r3, #12]
	temp = 0;
 80003e2:	2300      	movs	r3, #0
 80003e4:	617b      	str	r3, [r7, #20]

	// Configure the alt functionality
	if(pGPIOHandle->GPIO_PinConfig.GPIO_Mode == GPIO_MODE_AF){
 80003e6:	687b      	ldr	r3, [r7, #4]
 80003e8:	795b      	ldrb	r3, [r3, #5]
 80003ea:	2b02      	cmp	r3, #2
 80003ec:	d124      	bne.n	8000438 <GPIO_Init+0x324>
		uint8_t regIdx, pinPos;
		regIdx = pGPIOHandle->GPIO_PinConfig.GPIO_PinNumber / 8;
 80003ee:	687b      	ldr	r3, [r7, #4]
 80003f0:	791a      	ldrb	r2, [r3, #4]
 80003f2:	2410      	movs	r4, #16
 80003f4:	193b      	adds	r3, r7, r4
 80003f6:	08d2      	lsrs	r2, r2, #3
 80003f8:	701a      	strb	r2, [r3, #0]
		pinPos = pGPIOHandle->GPIO_PinConfig.GPIO_PinNumber % 8;
 80003fa:	687b      	ldr	r3, [r7, #4]
 80003fc:	791a      	ldrb	r2, [r3, #4]
 80003fe:	200f      	movs	r0, #15
 8000400:	183b      	adds	r3, r7, r0
 8000402:	2107      	movs	r1, #7
 8000404:	400a      	ands	r2, r1
 8000406:	701a      	strb	r2, [r3, #0]
		pGPIOHandle->pGPIOx->AFR[regIdx] |= (pGPIOHandle->GPIO_PinConfig.GPIO_AltFunction << (4 * pinPos));
 8000408:	687b      	ldr	r3, [r7, #4]
 800040a:	681b      	ldr	r3, [r3, #0]
 800040c:	193a      	adds	r2, r7, r4
 800040e:	7812      	ldrb	r2, [r2, #0]
 8000410:	3208      	adds	r2, #8
 8000412:	0092      	lsls	r2, r2, #2
 8000414:	58d1      	ldr	r1, [r2, r3]
 8000416:	687b      	ldr	r3, [r7, #4]
 8000418:	7a5b      	ldrb	r3, [r3, #9]
 800041a:	001a      	movs	r2, r3
 800041c:	183b      	adds	r3, r7, r0
 800041e:	781b      	ldrb	r3, [r3, #0]
 8000420:	009b      	lsls	r3, r3, #2
 8000422:	409a      	lsls	r2, r3
 8000424:	0013      	movs	r3, r2
 8000426:	0018      	movs	r0, r3
 8000428:	687b      	ldr	r3, [r7, #4]
 800042a:	681b      	ldr	r3, [r3, #0]
 800042c:	193a      	adds	r2, r7, r4
 800042e:	7812      	ldrb	r2, [r2, #0]
 8000430:	4301      	orrs	r1, r0
 8000432:	3208      	adds	r2, #8
 8000434:	0092      	lsls	r2, r2, #2
 8000436:	50d1      	str	r1, [r2, r3]
	}
}
 8000438:	46c0      	nop			@ (mov r8, r8)
 800043a:	46bd      	mov	sp, r7
 800043c:	b007      	add	sp, #28
 800043e:	bdf0      	pop	{r4, r5, r6, r7, pc}
 8000440:	40021800 	.word	0x40021800
 8000444:	50000400 	.word	0x50000400
 8000448:	50000800 	.word	0x50000800
 800044c:	50000c00 	.word	0x50000c00
 8000450:	50001400 	.word	0x50001400

08000454 <GPIO_PeriClkCtrl>:
 * @brief  Enables or disables the clock for the specified GPIO peripheral.
 * @param  pGPIOx: Base address of the GPIO peripheral.
 * @param  en: Enable/disable flag (1 to enable, 0 to disable).
 * @retval None
 */
void GPIO_PeriClkCtrl(GPIO_RegDef_t *pGPIOx, uint8_t en){
 8000454:	b580      	push	{r7, lr}
 8000456:	b082      	sub	sp, #8
 8000458:	af00      	add	r7, sp, #0
 800045a:	6078      	str	r0, [r7, #4]
 800045c:	000a      	movs	r2, r1
 800045e:	1cfb      	adds	r3, r7, #3
 8000460:	701a      	strb	r2, [r3, #0]
	if(en == ENABLE){
 8000462:	1cfb      	adds	r3, r7, #3
 8000464:	781b      	ldrb	r3, [r3, #0]
 8000466:	2b01      	cmp	r3, #1
 8000468:	d137      	bne.n	80004da <GPIO_PeriClkCtrl+0x86>
		if(pGPIOx == GPIOA)	GPIOA_PCLK_EN();
 800046a:	687a      	ldr	r2, [r7, #4]
 800046c:	23a0      	movs	r3, #160	@ 0xa0
 800046e:	05db      	lsls	r3, r3, #23
 8000470:	429a      	cmp	r2, r3
 8000472:	d106      	bne.n	8000482 <GPIO_PeriClkCtrl+0x2e>
 8000474:	4b36      	ldr	r3, [pc, #216]	@ (8000550 <GPIO_PeriClkCtrl+0xfc>)
 8000476:	6b5a      	ldr	r2, [r3, #52]	@ 0x34
 8000478:	4b35      	ldr	r3, [pc, #212]	@ (8000550 <GPIO_PeriClkCtrl+0xfc>)
 800047a:	2101      	movs	r1, #1
 800047c:	430a      	orrs	r2, r1
 800047e:	635a      	str	r2, [r3, #52]	@ 0x34
		else if(pGPIOx == GPIOB) GPIOB_PCLK_DI();
		else if(pGPIOx == GPIOC) GPIOC_PCLK_DI();
		else if(pGPIOx == GPIOD) GPIOD_PCLK_DI();
		else if(pGPIOx == GPIOF) GPIOF_PCLK_DI();
	}
}
 8000480:	e062      	b.n	8000548 <GPIO_PeriClkCtrl+0xf4>
		else if(pGPIOx == GPIOB) GPIOB_PCLK_EN();
 8000482:	687b      	ldr	r3, [r7, #4]
 8000484:	4a33      	ldr	r2, [pc, #204]	@ (8000554 <GPIO_PeriClkCtrl+0x100>)
 8000486:	4293      	cmp	r3, r2
 8000488:	d106      	bne.n	8000498 <GPIO_PeriClkCtrl+0x44>
 800048a:	4b31      	ldr	r3, [pc, #196]	@ (8000550 <GPIO_PeriClkCtrl+0xfc>)
 800048c:	6b5a      	ldr	r2, [r3, #52]	@ 0x34
 800048e:	4b30      	ldr	r3, [pc, #192]	@ (8000550 <GPIO_PeriClkCtrl+0xfc>)
 8000490:	2102      	movs	r1, #2
 8000492:	430a      	orrs	r2, r1
 8000494:	635a      	str	r2, [r3, #52]	@ 0x34
}
 8000496:	e057      	b.n	8000548 <GPIO_PeriClkCtrl+0xf4>
		else if(pGPIOx == GPIOC) GPIOC_PCLK_EN();
 8000498:	687b      	ldr	r3, [r7, #4]
 800049a:	4a2f      	ldr	r2, [pc, #188]	@ (8000558 <GPIO_PeriClkCtrl+0x104>)
 800049c:	4293      	cmp	r3, r2
 800049e:	d106      	bne.n	80004ae <GPIO_PeriClkCtrl+0x5a>
 80004a0:	4b2b      	ldr	r3, [pc, #172]	@ (8000550 <GPIO_PeriClkCtrl+0xfc>)
 80004a2:	6b5a      	ldr	r2, [r3, #52]	@ 0x34
 80004a4:	4b2a      	ldr	r3, [pc, #168]	@ (8000550 <GPIO_PeriClkCtrl+0xfc>)
 80004a6:	2104      	movs	r1, #4
 80004a8:	430a      	orrs	r2, r1
 80004aa:	635a      	str	r2, [r3, #52]	@ 0x34
}
 80004ac:	e04c      	b.n	8000548 <GPIO_PeriClkCtrl+0xf4>
		else if(pGPIOx == GPIOD) GPIOD_PCLK_EN();
 80004ae:	687b      	ldr	r3, [r7, #4]
 80004b0:	4a2a      	ldr	r2, [pc, #168]	@ (800055c <GPIO_PeriClkCtrl+0x108>)
 80004b2:	4293      	cmp	r3, r2
 80004b4:	d106      	bne.n	80004c4 <GPIO_PeriClkCtrl+0x70>
 80004b6:	4b26      	ldr	r3, [pc, #152]	@ (8000550 <GPIO_PeriClkCtrl+0xfc>)
 80004b8:	6b5a      	ldr	r2, [r3, #52]	@ 0x34
 80004ba:	4b25      	ldr	r3, [pc, #148]	@ (8000550 <GPIO_PeriClkCtrl+0xfc>)
 80004bc:	2108      	movs	r1, #8
 80004be:	430a      	orrs	r2, r1
 80004c0:	635a      	str	r2, [r3, #52]	@ 0x34
}
 80004c2:	e041      	b.n	8000548 <GPIO_PeriClkCtrl+0xf4>
		else if(pGPIOx == GPIOF) GPIOF_PCLK_EN();
 80004c4:	687b      	ldr	r3, [r7, #4]
 80004c6:	4a26      	ldr	r2, [pc, #152]	@ (8000560 <GPIO_PeriClkCtrl+0x10c>)
 80004c8:	4293      	cmp	r3, r2
 80004ca:	d13d      	bne.n	8000548 <GPIO_PeriClkCtrl+0xf4>
 80004cc:	4b20      	ldr	r3, [pc, #128]	@ (8000550 <GPIO_PeriClkCtrl+0xfc>)
 80004ce:	6b5a      	ldr	r2, [r3, #52]	@ 0x34
 80004d0:	4b1f      	ldr	r3, [pc, #124]	@ (8000550 <GPIO_PeriClkCtrl+0xfc>)
 80004d2:	2120      	movs	r1, #32
 80004d4:	430a      	orrs	r2, r1
 80004d6:	635a      	str	r2, [r3, #52]	@ 0x34
}
 80004d8:	e036      	b.n	8000548 <GPIO_PeriClkCtrl+0xf4>
		if(pGPIOx == GPIOA)	GPIOA_PCLK_DI();
 80004da:	687a      	ldr	r2, [r7, #4]
 80004dc:	23a0      	movs	r3, #160	@ 0xa0
 80004de:	05db      	lsls	r3, r3, #23
 80004e0:	429a      	cmp	r2, r3
 80004e2:	d106      	bne.n	80004f2 <GPIO_PeriClkCtrl+0x9e>
 80004e4:	4b1a      	ldr	r3, [pc, #104]	@ (8000550 <GPIO_PeriClkCtrl+0xfc>)
 80004e6:	6b5a      	ldr	r2, [r3, #52]	@ 0x34
 80004e8:	4b19      	ldr	r3, [pc, #100]	@ (8000550 <GPIO_PeriClkCtrl+0xfc>)
 80004ea:	2101      	movs	r1, #1
 80004ec:	438a      	bics	r2, r1
 80004ee:	635a      	str	r2, [r3, #52]	@ 0x34
}
 80004f0:	e02a      	b.n	8000548 <GPIO_PeriClkCtrl+0xf4>
		else if(pGPIOx == GPIOB) GPIOB_PCLK_DI();
 80004f2:	687b      	ldr	r3, [r7, #4]
 80004f4:	4a17      	ldr	r2, [pc, #92]	@ (8000554 <GPIO_PeriClkCtrl+0x100>)
 80004f6:	4293      	cmp	r3, r2
 80004f8:	d106      	bne.n	8000508 <GPIO_PeriClkCtrl+0xb4>
 80004fa:	4b15      	ldr	r3, [pc, #84]	@ (8000550 <GPIO_PeriClkCtrl+0xfc>)
 80004fc:	6b5a      	ldr	r2, [r3, #52]	@ 0x34
 80004fe:	4b14      	ldr	r3, [pc, #80]	@ (8000550 <GPIO_PeriClkCtrl+0xfc>)
 8000500:	2102      	movs	r1, #2
 8000502:	438a      	bics	r2, r1
 8000504:	635a      	str	r2, [r3, #52]	@ 0x34
}
 8000506:	e01f      	b.n	8000548 <GPIO_PeriClkCtrl+0xf4>
		else if(pGPIOx == GPIOC) GPIOC_PCLK_DI();
 8000508:	687b      	ldr	r3, [r7, #4]
 800050a:	4a13      	ldr	r2, [pc, #76]	@ (8000558 <GPIO_PeriClkCtrl+0x104>)
 800050c:	4293      	cmp	r3, r2
 800050e:	d106      	bne.n	800051e <GPIO_PeriClkCtrl+0xca>
 8000510:	4b0f      	ldr	r3, [pc, #60]	@ (8000550 <GPIO_PeriClkCtrl+0xfc>)
 8000512:	6b5a      	ldr	r2, [r3, #52]	@ 0x34
 8000514:	4b0e      	ldr	r3, [pc, #56]	@ (8000550 <GPIO_PeriClkCtrl+0xfc>)
 8000516:	2104      	movs	r1, #4
 8000518:	438a      	bics	r2, r1
 800051a:	635a      	str	r2, [r3, #52]	@ 0x34
}
 800051c:	e014      	b.n	8000548 <GPIO_PeriClkCtrl+0xf4>
		else if(pGPIOx == GPIOD) GPIOD_PCLK_DI();
 800051e:	687b      	ldr	r3, [r7, #4]
 8000520:	4a0e      	ldr	r2, [pc, #56]	@ (800055c <GPIO_PeriClkCtrl+0x108>)
 8000522:	4293      	cmp	r3, r2
 8000524:	d106      	bne.n	8000534 <GPIO_PeriClkCtrl+0xe0>
 8000526:	4b0a      	ldr	r3, [pc, #40]	@ (8000550 <GPIO_PeriClkCtrl+0xfc>)
 8000528:	6b5a      	ldr	r2, [r3, #52]	@ 0x34
 800052a:	4b09      	ldr	r3, [pc, #36]	@ (8000550 <GPIO_PeriClkCtrl+0xfc>)
 800052c:	2108      	movs	r1, #8
 800052e:	438a      	bics	r2, r1
 8000530:	635a      	str	r2, [r3, #52]	@ 0x34
}
 8000532:	e009      	b.n	8000548 <GPIO_PeriClkCtrl+0xf4>
		else if(pGPIOx == GPIOF) GPIOF_PCLK_DI();
 8000534:	687b      	ldr	r3, [r7, #4]
 8000536:	4a0a      	ldr	r2, [pc, #40]	@ (8000560 <GPIO_PeriClkCtrl+0x10c>)
 8000538:	4293      	cmp	r3, r2
 800053a:	d105      	bne.n	8000548 <GPIO_PeriClkCtrl+0xf4>
 800053c:	4b04      	ldr	r3, [pc, #16]	@ (8000550 <GPIO_PeriClkCtrl+0xfc>)
 800053e:	6b5a      	ldr	r2, [r3, #52]	@ 0x34
 8000540:	4b03      	ldr	r3, [pc, #12]	@ (8000550 <GPIO_PeriClkCtrl+0xfc>)
 8000542:	2120      	movs	r1, #32
 8000544:	438a      	bics	r2, r1
 8000546:	635a      	str	r2, [r3, #52]	@ 0x34
}
 8000548:	46c0      	nop			@ (mov r8, r8)
 800054a:	46bd      	mov	sp, r7
 800054c:	b002      	add	sp, #8
 800054e:	bd80      	pop	{r7, pc}
 8000550:	40021000 	.word	0x40021000
 8000554:	50000400 	.word	0x50000400
 8000558:	50000800 	.word	0x50000800
 800055c:	50000c00 	.word	0x50000c00
 8000560:	50001400 	.word	0x50001400

08000564 <SPI_Init>:
/**
 * @brief  Initializes the SPI with the specified configuration.
 * @param  pSPIHandle: Pointer to the SPI handle structure containing the configuration.
 * @retval None
 */
void SPI_Init(SPI_Handle_t *pSPIHandle){
 8000564:	b580      	push	{r7, lr}
 8000566:	b084      	sub	sp, #16
 8000568:	af00      	add	r7, sp, #0
 800056a:	6078      	str	r0, [r7, #4]
	// congifure the SPI_CR1 register
	uint32_t tempreg = 0;
 800056c:	2300      	movs	r3, #0
 800056e:	60fb      	str	r3, [r7, #12]

	//enable the peripheral clock
	SPI_PeriClkCtrl(pSPIHandle->pSPIx, ENABLE);
 8000570:	687b      	ldr	r3, [r7, #4]
 8000572:	681b      	ldr	r3, [r3, #0]
 8000574:	2101      	movs	r1, #1
 8000576:	0018      	movs	r0, r3
 8000578:	f000 f854 	bl	8000624 <SPI_PeriClkCtrl>

	// 1. configure the device mode
	tempreg |= pSPIHandle->SPI_Config.SPI_Mode << 2;
 800057c:	687b      	ldr	r3, [r7, #4]
 800057e:	685b      	ldr	r3, [r3, #4]
 8000580:	009b      	lsls	r3, r3, #2
 8000582:	68fa      	ldr	r2, [r7, #12]
 8000584:	4313      	orrs	r3, r2
 8000586:	60fb      	str	r3, [r7, #12]

	// 2. Configure the bus config
	if (pSPIHandle->SPI_Config.SPI_BusConfig == SPI_BUS_CONFIG_FD) {
 8000588:	687b      	ldr	r3, [r7, #4]
 800058a:	689b      	ldr	r3, [r3, #8]
 800058c:	2b00      	cmp	r3, #0
 800058e:	d104      	bne.n	800059a <SPI_Init+0x36>
		// Full-Duplex mode (default), BIDIMODE = 0
		tempreg &= ~(1 << SPI_CR1_BIDIMODE);
 8000590:	68fb      	ldr	r3, [r7, #12]
 8000592:	4a23      	ldr	r2, [pc, #140]	@ (8000620 <SPI_Init+0xbc>)
 8000594:	4013      	ands	r3, r2
 8000596:	60fb      	str	r3, [r7, #12]
 8000598:	e016      	b.n	80005c8 <SPI_Init+0x64>
	} else if (pSPIHandle->SPI_Config.SPI_BusConfig == SPI_BUS_CONFIG_HD) {
 800059a:	687b      	ldr	r3, [r7, #4]
 800059c:	689b      	ldr	r3, [r3, #8]
 800059e:	2b01      	cmp	r3, #1
 80005a0:	d105      	bne.n	80005ae <SPI_Init+0x4a>
		// Half-Duplex mode, BIDIMODE = 1
		tempreg |= (1 << SPI_CR1_BIDIMODE);
 80005a2:	68fb      	ldr	r3, [r7, #12]
 80005a4:	2280      	movs	r2, #128	@ 0x80
 80005a6:	0212      	lsls	r2, r2, #8
 80005a8:	4313      	orrs	r3, r2
 80005aa:	60fb      	str	r3, [r7, #12]
 80005ac:	e00c      	b.n	80005c8 <SPI_Init+0x64>
	} else if (pSPIHandle->SPI_Config.SPI_BusConfig == SPI_BUS_CONFIG_SIMPLEX_RXONLY) {
 80005ae:	687b      	ldr	r3, [r7, #4]
 80005b0:	689b      	ldr	r3, [r3, #8]
 80005b2:	2b02      	cmp	r3, #2
 80005b4:	d108      	bne.n	80005c8 <SPI_Init+0x64>
		// Simplex mode (Receive only), BIDIMODE = 0, RXONLY = 1
		tempreg &= ~(1 << SPI_CR1_BIDIMODE);
 80005b6:	68fb      	ldr	r3, [r7, #12]
 80005b8:	4a19      	ldr	r2, [pc, #100]	@ (8000620 <SPI_Init+0xbc>)
 80005ba:	4013      	ands	r3, r2
 80005bc:	60fb      	str	r3, [r7, #12]
		tempreg |= (1 << SPI_CR1_RXONLY);
 80005be:	68fb      	ldr	r3, [r7, #12]
 80005c0:	2280      	movs	r2, #128	@ 0x80
 80005c2:	00d2      	lsls	r2, r2, #3
 80005c4:	4313      	orrs	r3, r2
 80005c6:	60fb      	str	r3, [r7, #12]
	}

	// 3. Configure the SPI clock speed (Baud Rate)
	tempreg |= pSPIHandle->SPI_Config.SPI_SclkSpeed << SPI_CR1_BR_Pos;
 80005c8:	687b      	ldr	r3, [r7, #4]
 80005ca:	68db      	ldr	r3, [r3, #12]
 80005cc:	00db      	lsls	r3, r3, #3
 80005ce:	68fa      	ldr	r2, [r7, #12]
 80005d0:	4313      	orrs	r3, r2
 80005d2:	60fb      	str	r3, [r7, #12]

	// 4. Configure the SPI Clock Phase (CPHA)
	tempreg |= pSPIHandle->SPI_Config.SPI_CPHA << SPI_CR1_CPHA;
 80005d4:	687b      	ldr	r3, [r7, #4]
 80005d6:	695b      	ldr	r3, [r3, #20]
 80005d8:	68fa      	ldr	r2, [r7, #12]
 80005da:	4313      	orrs	r3, r2
 80005dc:	60fb      	str	r3, [r7, #12]

	// 5. Configure the SPI Clock Polarity (CPOL)
	tempreg |= pSPIHandle->SPI_Config.SPI_CPOL << SPI_CR1_CPOL;
 80005de:	687b      	ldr	r3, [r7, #4]
 80005e0:	699b      	ldr	r3, [r3, #24]
 80005e2:	005b      	lsls	r3, r3, #1
 80005e4:	68fa      	ldr	r2, [r7, #12]
 80005e6:	4313      	orrs	r3, r2
 80005e8:	60fb      	str	r3, [r7, #12]

	// 6. Configure the SPI Software Slave Management (SSM)
	tempreg |= pSPIHandle->SPI_Config.SPI_SSM << SPI_CR1_SSM;
 80005ea:	687b      	ldr	r3, [r7, #4]
 80005ec:	69db      	ldr	r3, [r3, #28]
 80005ee:	025b      	lsls	r3, r3, #9
 80005f0:	68fa      	ldr	r2, [r7, #12]
 80005f2:	4313      	orrs	r3, r2
 80005f4:	60fb      	str	r3, [r7, #12]

	// Write to SPI_CR1 register
	pSPIHandle->pSPIx->CR1 = tempreg;
 80005f6:	687b      	ldr	r3, [r7, #4]
 80005f8:	681b      	ldr	r3, [r3, #0]
 80005fa:	68fa      	ldr	r2, [r7, #12]
 80005fc:	601a      	str	r2, [r3, #0]

	// configure the SPI_CR2 register
	tempreg = 0;
 80005fe:	2300      	movs	r3, #0
 8000600:	60fb      	str	r3, [r7, #12]

	// 1. Configure the Data Frame Size (DS[3:0] in CR2)
	tempreg |= (pSPIHandle->SPI_Config.SPI_DSF << SPI_CR2_DS_Pos);
 8000602:	687b      	ldr	r3, [r7, #4]
 8000604:	691b      	ldr	r3, [r3, #16]
 8000606:	021b      	lsls	r3, r3, #8
 8000608:	68fa      	ldr	r2, [r7, #12]
 800060a:	4313      	orrs	r3, r2
 800060c:	60fb      	str	r3, [r7, #12]

	// Write to SPI_CR2 register
	pSPIHandle->pSPIx->CR2 = tempreg;
 800060e:	687b      	ldr	r3, [r7, #4]
 8000610:	681b      	ldr	r3, [r3, #0]
 8000612:	68fa      	ldr	r2, [r7, #12]
 8000614:	605a      	str	r2, [r3, #4]
}
 8000616:	46c0      	nop			@ (mov r8, r8)
 8000618:	46bd      	mov	sp, r7
 800061a:	b004      	add	sp, #16
 800061c:	bd80      	pop	{r7, pc}
 800061e:	46c0      	nop			@ (mov r8, r8)
 8000620:	ffff7fff 	.word	0xffff7fff

08000624 <SPI_PeriClkCtrl>:
 * @brief  Enables or disables the clock for the specified SPI peripheral.
 * @param  pSPIx: Base address of the SPI peripheral.
 * @param  en: Enable/disable flag (1 to enable, 0 to disable).
 * @retval None
 */
void SPI_PeriClkCtrl(SPI_RegDef_t *pSPIx, uint8_t en){
 8000624:	b580      	push	{r7, lr}
 8000626:	b082      	sub	sp, #8
 8000628:	af00      	add	r7, sp, #0
 800062a:	6078      	str	r0, [r7, #4]
 800062c:	000a      	movs	r2, r1
 800062e:	1cfb      	adds	r3, r7, #3
 8000630:	701a      	strb	r2, [r3, #0]
	if(en == ENABLE){
 8000632:	1cfb      	adds	r3, r7, #3
 8000634:	781b      	ldrb	r3, [r3, #0]
 8000636:	2b01      	cmp	r3, #1
 8000638:	d117      	bne.n	800066a <SPI_PeriClkCtrl+0x46>
		if(pSPIx == SPI1)	SPI1_PCLK_EN();
 800063a:	687b      	ldr	r3, [r7, #4]
 800063c:	4a17      	ldr	r2, [pc, #92]	@ (800069c <SPI_PeriClkCtrl+0x78>)
 800063e:	4293      	cmp	r3, r2
 8000640:	d107      	bne.n	8000652 <SPI_PeriClkCtrl+0x2e>
 8000642:	4b17      	ldr	r3, [pc, #92]	@ (80006a0 <SPI_PeriClkCtrl+0x7c>)
 8000644:	6c1a      	ldr	r2, [r3, #64]	@ 0x40
 8000646:	4b16      	ldr	r3, [pc, #88]	@ (80006a0 <SPI_PeriClkCtrl+0x7c>)
 8000648:	2180      	movs	r1, #128	@ 0x80
 800064a:	0149      	lsls	r1, r1, #5
 800064c:	430a      	orrs	r2, r1
 800064e:	641a      	str	r2, [r3, #64]	@ 0x40
		else if(pSPIx == SPI2) SPI2_PCLK_EN();
	}else{
		if(pSPIx == SPI1)	SPI1_PCLK_DI();
		else if(pSPIx == SPI2) SPI2_PCLK_DI();
	}
}
 8000650:	e020      	b.n	8000694 <SPI_PeriClkCtrl+0x70>
		else if(pSPIx == SPI2) SPI2_PCLK_EN();
 8000652:	687b      	ldr	r3, [r7, #4]
 8000654:	4a13      	ldr	r2, [pc, #76]	@ (80006a4 <SPI_PeriClkCtrl+0x80>)
 8000656:	4293      	cmp	r3, r2
 8000658:	d11c      	bne.n	8000694 <SPI_PeriClkCtrl+0x70>
 800065a:	4b11      	ldr	r3, [pc, #68]	@ (80006a0 <SPI_PeriClkCtrl+0x7c>)
 800065c:	6bda      	ldr	r2, [r3, #60]	@ 0x3c
 800065e:	4b10      	ldr	r3, [pc, #64]	@ (80006a0 <SPI_PeriClkCtrl+0x7c>)
 8000660:	2180      	movs	r1, #128	@ 0x80
 8000662:	01c9      	lsls	r1, r1, #7
 8000664:	430a      	orrs	r2, r1
 8000666:	63da      	str	r2, [r3, #60]	@ 0x3c
}
 8000668:	e014      	b.n	8000694 <SPI_PeriClkCtrl+0x70>
		if(pSPIx == SPI1)	SPI1_PCLK_DI();
 800066a:	687b      	ldr	r3, [r7, #4]
 800066c:	4a0b      	ldr	r2, [pc, #44]	@ (800069c <SPI_PeriClkCtrl+0x78>)
 800066e:	4293      	cmp	r3, r2
 8000670:	d106      	bne.n	8000680 <SPI_PeriClkCtrl+0x5c>
 8000672:	4b0b      	ldr	r3, [pc, #44]	@ (80006a0 <SPI_PeriClkCtrl+0x7c>)
 8000674:	6c1a      	ldr	r2, [r3, #64]	@ 0x40
 8000676:	4b0a      	ldr	r3, [pc, #40]	@ (80006a0 <SPI_PeriClkCtrl+0x7c>)
 8000678:	490b      	ldr	r1, [pc, #44]	@ (80006a8 <SPI_PeriClkCtrl+0x84>)
 800067a:	400a      	ands	r2, r1
 800067c:	641a      	str	r2, [r3, #64]	@ 0x40
}
 800067e:	e009      	b.n	8000694 <SPI_PeriClkCtrl+0x70>
		else if(pSPIx == SPI2) SPI2_PCLK_DI();
 8000680:	687b      	ldr	r3, [r7, #4]
 8000682:	4a08      	ldr	r2, [pc, #32]	@ (80006a4 <SPI_PeriClkCtrl+0x80>)
 8000684:	4293      	cmp	r3, r2
 8000686:	d105      	bne.n	8000694 <SPI_PeriClkCtrl+0x70>
 8000688:	4b05      	ldr	r3, [pc, #20]	@ (80006a0 <SPI_PeriClkCtrl+0x7c>)
 800068a:	6bda      	ldr	r2, [r3, #60]	@ 0x3c
 800068c:	4b04      	ldr	r3, [pc, #16]	@ (80006a0 <SPI_PeriClkCtrl+0x7c>)
 800068e:	4907      	ldr	r1, [pc, #28]	@ (80006ac <SPI_PeriClkCtrl+0x88>)
 8000690:	400a      	ands	r2, r1
 8000692:	63da      	str	r2, [r3, #60]	@ 0x3c
}
 8000694:	46c0      	nop			@ (mov r8, r8)
 8000696:	46bd      	mov	sp, r7
 8000698:	b002      	add	sp, #8
 800069a:	bd80      	pop	{r7, pc}
 800069c:	40013000 	.word	0x40013000
 80006a0:	40021000 	.word	0x40021000
 80006a4:	40003800 	.word	0x40003800
 80006a8:	ffffefff 	.word	0xffffefff
 80006ac:	ffffbfff 	.word	0xffffbfff

080006b0 <SPI_PeripheralCtrl>:

void SPI_PeripheralCtrl(SPI_RegDef_t *pSPIx, uint8_t en){
 80006b0:	b580      	push	{r7, lr}
 80006b2:	b082      	sub	sp, #8
 80006b4:	af00      	add	r7, sp, #0
 80006b6:	6078      	str	r0, [r7, #4]
 80006b8:	000a      	movs	r2, r1
 80006ba:	1cfb      	adds	r3, r7, #3
 80006bc:	701a      	strb	r2, [r3, #0]
	if(en == ENABLE){
 80006be:	1cfb      	adds	r3, r7, #3
 80006c0:	781b      	ldrb	r3, [r3, #0]
 80006c2:	2b01      	cmp	r3, #1
 80006c4:	d106      	bne.n	80006d4 <SPI_PeripheralCtrl+0x24>
		pSPIx->CR1 |= (1 << SPI_CR1_SPE);
 80006c6:	687b      	ldr	r3, [r7, #4]
 80006c8:	681b      	ldr	r3, [r3, #0]
 80006ca:	2240      	movs	r2, #64	@ 0x40
 80006cc:	431a      	orrs	r2, r3
 80006ce:	687b      	ldr	r3, [r7, #4]
 80006d0:	601a      	str	r2, [r3, #0]
	} else {
		pSPIx->CR1 &= ~(1 << SPI_CR1_SPE);
	}
}
 80006d2:	e006      	b.n	80006e2 <SPI_PeripheralCtrl+0x32>
		pSPIx->CR1 &= ~(1 << SPI_CR1_SPE);
 80006d4:	687b      	ldr	r3, [r7, #4]
 80006d6:	681b      	ldr	r3, [r3, #0]
 80006d8:	2240      	movs	r2, #64	@ 0x40
 80006da:	4393      	bics	r3, r2
 80006dc:	001a      	movs	r2, r3
 80006de:	687b      	ldr	r3, [r7, #4]
 80006e0:	601a      	str	r2, [r3, #0]
}
 80006e2:	46c0      	nop			@ (mov r8, r8)
 80006e4:	46bd      	mov	sp, r7
 80006e6:	b002      	add	sp, #8
 80006e8:	bd80      	pop	{r7, pc}
	...

080006ec <SPI_SSIConfig>:

void SPI_SSIConfig(SPI_RegDef_t *pSPIx, uint8_t en){
 80006ec:	b580      	push	{r7, lr}
 80006ee:	b082      	sub	sp, #8
 80006f0:	af00      	add	r7, sp, #0
 80006f2:	6078      	str	r0, [r7, #4]
 80006f4:	000a      	movs	r2, r1
 80006f6:	1cfb      	adds	r3, r7, #3
 80006f8:	701a      	strb	r2, [r3, #0]
	if(en == ENABLE){
 80006fa:	1cfb      	adds	r3, r7, #3
 80006fc:	781b      	ldrb	r3, [r3, #0]
 80006fe:	2b01      	cmp	r3, #1
 8000700:	d107      	bne.n	8000712 <SPI_SSIConfig+0x26>
			pSPIx->CR1 |= (1 << SPI_CR1_SSI);
 8000702:	687b      	ldr	r3, [r7, #4]
 8000704:	681b      	ldr	r3, [r3, #0]
 8000706:	2280      	movs	r2, #128	@ 0x80
 8000708:	0052      	lsls	r2, r2, #1
 800070a:	431a      	orrs	r2, r3
 800070c:	687b      	ldr	r3, [r7, #4]
 800070e:	601a      	str	r2, [r3, #0]
		} else {
			pSPIx->CR1 &= ~(1 << SPI_CR1_SSI);
		}
}
 8000710:	e005      	b.n	800071e <SPI_SSIConfig+0x32>
			pSPIx->CR1 &= ~(1 << SPI_CR1_SSI);
 8000712:	687b      	ldr	r3, [r7, #4]
 8000714:	681b      	ldr	r3, [r3, #0]
 8000716:	4a04      	ldr	r2, [pc, #16]	@ (8000728 <SPI_SSIConfig+0x3c>)
 8000718:	401a      	ands	r2, r3
 800071a:	687b      	ldr	r3, [r7, #4]
 800071c:	601a      	str	r2, [r3, #0]
}
 800071e:	46c0      	nop			@ (mov r8, r8)
 8000720:	46bd      	mov	sp, r7
 8000722:	b002      	add	sp, #8
 8000724:	bd80      	pop	{r7, pc}
 8000726:	46c0      	nop			@ (mov r8, r8)
 8000728:	fffffeff 	.word	0xfffffeff

0800072c <SPI_GetFlagStatus>:

uint8_t SPI_GetFlagStatus(SPI_RegDef_t *pSPIx, uint32_t FlagName){
 800072c:	b580      	push	{r7, lr}
 800072e:	b082      	sub	sp, #8
 8000730:	af00      	add	r7, sp, #0
 8000732:	6078      	str	r0, [r7, #4]
 8000734:	6039      	str	r1, [r7, #0]
	if(pSPIx->SR & FlagName){
 8000736:	687b      	ldr	r3, [r7, #4]
 8000738:	689b      	ldr	r3, [r3, #8]
 800073a:	683a      	ldr	r2, [r7, #0]
 800073c:	4013      	ands	r3, r2
 800073e:	d001      	beq.n	8000744 <SPI_GetFlagStatus+0x18>
		return FLAG_SET;
 8000740:	2301      	movs	r3, #1
 8000742:	e000      	b.n	8000746 <SPI_GetFlagStatus+0x1a>
	} else {
		return FLAG_RESET;
 8000744:	2300      	movs	r3, #0
	}
}
 8000746:	0018      	movs	r0, r3
 8000748:	46bd      	mov	sp, r7
 800074a:	b002      	add	sp, #8
 800074c:	bd80      	pop	{r7, pc}

0800074e <SPI_SendData>:
 * @param  Len: Size of the data to be transmitted
 * @retval None
 *
 * @note  This is blocking call
 */
void SPI_SendData(SPI_RegDef_t *pSPIx, uint8_t *pTxBuffer, uint32_t Len){
 800074e:	b580      	push	{r7, lr}
 8000750:	b084      	sub	sp, #16
 8000752:	af00      	add	r7, sp, #0
 8000754:	60f8      	str	r0, [r7, #12]
 8000756:	60b9      	str	r1, [r7, #8]
 8000758:	607a      	str	r2, [r7, #4]
	while (Len > 0){
 800075a:	e029      	b.n	80007b0 <SPI_SendData+0x62>
		// 1. Wait until TXE is set
		while(SPI_GetFlagStatus(pSPIx, SPI_TXE_FLAG) == FLAG_RESET);
 800075c:	46c0      	nop			@ (mov r8, r8)
 800075e:	68fb      	ldr	r3, [r7, #12]
 8000760:	2102      	movs	r1, #2
 8000762:	0018      	movs	r0, r3
 8000764:	f7ff ffe2 	bl	800072c <SPI_GetFlagStatus>
 8000768:	1e03      	subs	r3, r0, #0
 800076a:	d0f8      	beq.n	800075e <SPI_SendData+0x10>

		// 2. check the DFS bit in CR2
		if (((pSPIx->CR2 & (0xF << SPI_CR2_DS_Pos)) >> SPI_CR2_DS_Pos) == SPI_DSF_16Bits){
 800076c:	68fb      	ldr	r3, [r7, #12]
 800076e:	685b      	ldr	r3, [r3, #4]
 8000770:	0a1b      	lsrs	r3, r3, #8
 8000772:	220f      	movs	r2, #15
 8000774:	4013      	ands	r3, r2
 8000776:	2b0f      	cmp	r3, #15
 8000778:	d10b      	bne.n	8000792 <SPI_SendData+0x44>
			// 16 bit DFS
			// 1. Load 16 bits of data into the DR register
			pSPIx->DR = *((uint16_t*)pTxBuffer);
 800077a:	68bb      	ldr	r3, [r7, #8]
 800077c:	881b      	ldrh	r3, [r3, #0]
 800077e:	001a      	movs	r2, r3
 8000780:	68fb      	ldr	r3, [r7, #12]
 8000782:	60da      	str	r2, [r3, #12]
			Len -= 2; // Reduce length by 2 bytes
 8000784:	687b      	ldr	r3, [r7, #4]
 8000786:	3b02      	subs	r3, #2
 8000788:	607b      	str	r3, [r7, #4]
			(uint16_t*)pTxBuffer++; // increment the buffer by 2 bytes(done by uibt16_t typecast)
 800078a:	68bb      	ldr	r3, [r7, #8]
 800078c:	3301      	adds	r3, #1
 800078e:	60bb      	str	r3, [r7, #8]
 8000790:	e00e      	b.n	80007b0 <SPI_SendData+0x62>
		} else if ((((pSPIx->CR2 & (0xF << SPI_CR2_DS_Pos)) >> SPI_CR2_DS_Pos) == SPI_DSF_8BITS)) {
 8000792:	68fb      	ldr	r3, [r7, #12]
 8000794:	685b      	ldr	r3, [r3, #4]
 8000796:	0a1b      	lsrs	r3, r3, #8
 8000798:	220f      	movs	r2, #15
 800079a:	4013      	ands	r3, r2
 800079c:	2b07      	cmp	r3, #7
 800079e:	d107      	bne.n	80007b0 <SPI_SendData+0x62>
			// 8 bit DFS
			// 1. Load 8 bits of data into the DR register
			pSPIx->DR = *pTxBuffer;
 80007a0:	68bb      	ldr	r3, [r7, #8]
 80007a2:	781b      	ldrb	r3, [r3, #0]
 80007a4:	001a      	movs	r2, r3
 80007a6:	68fb      	ldr	r3, [r7, #12]
 80007a8:	60da      	str	r2, [r3, #12]
			Len--;
 80007aa:	687b      	ldr	r3, [r7, #4]
 80007ac:	3b01      	subs	r3, #1
 80007ae:	607b      	str	r3, [r7, #4]
	while (Len > 0){
 80007b0:	687b      	ldr	r3, [r7, #4]
 80007b2:	2b00      	cmp	r3, #0
 80007b4:	d1d2      	bne.n	800075c <SPI_SendData+0xe>
		}

	}
}
 80007b6:	46c0      	nop			@ (mov r8, r8)
 80007b8:	46c0      	nop			@ (mov r8, r8)
 80007ba:	46bd      	mov	sp, r7
 80007bc:	b004      	add	sp, #16
 80007be:	bd80      	pop	{r7, pc}

080007c0 <SPI2_GPIOInits>:
 * pb12 -> SPI2_NSS   (Chip select)
 * pb13 -> SPI2_SCK
 * pb14 ->  SPI2_MISO
 * ALT function mode 0
 */
void SPI2_GPIOInits(void){
 80007c0:	b580      	push	{r7, lr}
 80007c2:	b084      	sub	sp, #16
 80007c4:	af00      	add	r7, sp, #0
	GPIO_Handle_t SPIPins;

	SPIPins.pGPIOx = GPIOB;
 80007c6:	1d3b      	adds	r3, r7, #4
 80007c8:	4a18      	ldr	r2, [pc, #96]	@ (800082c <SPI2_GPIOInits+0x6c>)
 80007ca:	601a      	str	r2, [r3, #0]
	SPIPins.GPIO_PinConfig.GPIO_Mode = GPIO_MODE_AF;
 80007cc:	1d3b      	adds	r3, r7, #4
 80007ce:	2202      	movs	r2, #2
 80007d0:	715a      	strb	r2, [r3, #5]
	SPIPins.GPIO_PinConfig.GPIO_AltFunction = GPIO_AF_0;
 80007d2:	1d3b      	adds	r3, r7, #4
 80007d4:	2200      	movs	r2, #0
 80007d6:	725a      	strb	r2, [r3, #9]
	SPIPins.GPIO_PinConfig.GPIO_OpType = GPIO_OP_TYPE_PP;
 80007d8:	1d3b      	adds	r3, r7, #4
 80007da:	2200      	movs	r2, #0
 80007dc:	721a      	strb	r2, [r3, #8]
	SPIPins.GPIO_PinConfig.GPIO_PuPdControl = GPIO_NO_PUPD;
 80007de:	1d3b      	adds	r3, r7, #4
 80007e0:	2200      	movs	r2, #0
 80007e2:	71da      	strb	r2, [r3, #7]
	SPIPins.GPIO_PinConfig.GPIO_Speed = GPIO_SPEED_VHIGH;
 80007e4:	1d3b      	adds	r3, r7, #4
 80007e6:	2203      	movs	r2, #3
 80007e8:	719a      	strb	r2, [r3, #6]

	// Sclk
	SPIPins.GPIO_PinConfig.GPIO_PinNumber = GPIO_PIN_NO_13;
 80007ea:	1d3b      	adds	r3, r7, #4
 80007ec:	220d      	movs	r2, #13
 80007ee:	711a      	strb	r2, [r3, #4]
	GPIO_Init(&SPIPins);
 80007f0:	1d3b      	adds	r3, r7, #4
 80007f2:	0018      	movs	r0, r3
 80007f4:	f7ff fc8e 	bl	8000114 <GPIO_Init>

	// MOSI
	SPIPins.GPIO_PinConfig.GPIO_PinNumber = GPIO_PIN_NO_11;
 80007f8:	1d3b      	adds	r3, r7, #4
 80007fa:	220b      	movs	r2, #11
 80007fc:	711a      	strb	r2, [r3, #4]
	GPIO_Init(&SPIPins);
 80007fe:	1d3b      	adds	r3, r7, #4
 8000800:	0018      	movs	r0, r3
 8000802:	f7ff fc87 	bl	8000114 <GPIO_Init>

	// MISO
	SPIPins.GPIO_PinConfig.GPIO_PinNumber = GPIO_PIN_NO_14;
 8000806:	1d3b      	adds	r3, r7, #4
 8000808:	220e      	movs	r2, #14
 800080a:	711a      	strb	r2, [r3, #4]
	GPIO_Init(&SPIPins);
 800080c:	1d3b      	adds	r3, r7, #4
 800080e:	0018      	movs	r0, r3
 8000810:	f7ff fc80 	bl	8000114 <GPIO_Init>

	// NSS
	SPIPins.GPIO_PinConfig.GPIO_PinNumber = GPIO_PIN_NO_12;
 8000814:	1d3b      	adds	r3, r7, #4
 8000816:	220c      	movs	r2, #12
 8000818:	711a      	strb	r2, [r3, #4]
	GPIO_Init(& SPIPins);
 800081a:	1d3b      	adds	r3, r7, #4
 800081c:	0018      	movs	r0, r3
 800081e:	f7ff fc79 	bl	8000114 <GPIO_Init>
}
 8000822:	46c0      	nop			@ (mov r8, r8)
 8000824:	46bd      	mov	sp, r7
 8000826:	b004      	add	sp, #16
 8000828:	bd80      	pop	{r7, pc}
 800082a:	46c0      	nop			@ (mov r8, r8)
 800082c:	50000400 	.word	0x50000400

08000830 <SPI2_Inits>:

void SPI2_Inits(void){
 8000830:	b580      	push	{r7, lr}
 8000832:	b088      	sub	sp, #32
 8000834:	af00      	add	r7, sp, #0
	SPI_Handle_t SPI2handle;

	SPI2handle.pSPIx = SPI2;
 8000836:	003b      	movs	r3, r7
 8000838:	4a0f      	ldr	r2, [pc, #60]	@ (8000878 <SPI2_Inits+0x48>)
 800083a:	601a      	str	r2, [r3, #0]
	SPI2handle.SPI_Config.SPI_Mode = SPI_MODE_MASTER;
 800083c:	003b      	movs	r3, r7
 800083e:	2201      	movs	r2, #1
 8000840:	605a      	str	r2, [r3, #4]
	SPI2handle.SPI_Config.SPI_BusConfig = SPI_BUS_CONFIG_FD;
 8000842:	003b      	movs	r3, r7
 8000844:	2200      	movs	r2, #0
 8000846:	609a      	str	r2, [r3, #8]
	SPI2handle.SPI_Config.SPI_SclkSpeed = SPI_SCLK_SPEED_DIV2;
 8000848:	003b      	movs	r3, r7
 800084a:	2200      	movs	r2, #0
 800084c:	60da      	str	r2, [r3, #12]
	SPI2handle.SPI_Config.SPI_DSF = SPI_DSF_8BITS;
 800084e:	003b      	movs	r3, r7
 8000850:	2207      	movs	r2, #7
 8000852:	611a      	str	r2, [r3, #16]
	SPI2handle.SPI_Config.SPI_CPOL = SPI_CPOL_LOW;
 8000854:	003b      	movs	r3, r7
 8000856:	2200      	movs	r2, #0
 8000858:	619a      	str	r2, [r3, #24]
	SPI2handle.SPI_Config.SPI_CPHA = SPI_CPHA_LOW;
 800085a:	003b      	movs	r3, r7
 800085c:	2200      	movs	r2, #0
 800085e:	615a      	str	r2, [r3, #20]
	SPI2handle.SPI_Config.SPI_SSM = SPI_SSM_EN;
 8000860:	003b      	movs	r3, r7
 8000862:	2201      	movs	r2, #1
 8000864:	61da      	str	r2, [r3, #28]

	SPI_Init(&SPI2handle);
 8000866:	003b      	movs	r3, r7
 8000868:	0018      	movs	r0, r3
 800086a:	f7ff fe7b 	bl	8000564 <SPI_Init>
}
 800086e:	46c0      	nop			@ (mov r8, r8)
 8000870:	46bd      	mov	sp, r7
 8000872:	b008      	add	sp, #32
 8000874:	bd80      	pop	{r7, pc}
 8000876:	46c0      	nop			@ (mov r8, r8)
 8000878:	40003800 	.word	0x40003800

0800087c <main>:


int main()
{
 800087c:	b590      	push	{r4, r7, lr}
 800087e:	b085      	sub	sp, #20
 8000880:	af00      	add	r7, sp, #0
	char user_data[] = "Hello world";
 8000882:	1d3b      	adds	r3, r7, #4
 8000884:	4a0f      	ldr	r2, [pc, #60]	@ (80008c4 <main+0x48>)
 8000886:	ca13      	ldmia	r2!, {r0, r1, r4}
 8000888:	c313      	stmia	r3!, {r0, r1, r4}

	// initialize the GPIO pins to behave as SPI2 pins
	SPI2_GPIOInits();
 800088a:	f7ff ff99 	bl	80007c0 <SPI2_GPIOInits>

	// initialize the SPI2 peripheral params
	SPI2_Inits();
 800088e:	f7ff ffcf 	bl	8000830 <SPI2_Inits>

	// makes NSS signal internally high and avoids MODF error
	SPI_SSIConfig(SPI2, ENABLE);
 8000892:	4b0d      	ldr	r3, [pc, #52]	@ (80008c8 <main+0x4c>)
 8000894:	2101      	movs	r1, #1
 8000896:	0018      	movs	r0, r3
 8000898:	f7ff ff28 	bl	80006ec <SPI_SSIConfig>

	//enable the SPI2 peripheral
	SPI_PeripheralCtrl(SPI2, ENABLE);
 800089c:	4b0a      	ldr	r3, [pc, #40]	@ (80008c8 <main+0x4c>)
 800089e:	2101      	movs	r1, #1
 80008a0:	0018      	movs	r0, r3
 80008a2:	f7ff ff05 	bl	80006b0 <SPI_PeripheralCtrl>

	SPI_SendData(SPI2, (uint8_t*)user_data, strlen(user_data));
 80008a6:	1d3b      	adds	r3, r7, #4
 80008a8:	0018      	movs	r0, r3
 80008aa:	f7ff fc2b 	bl	8000104 <strlen>
 80008ae:	0002      	movs	r2, r0
 80008b0:	1d3b      	adds	r3, r7, #4
 80008b2:	4805      	ldr	r0, [pc, #20]	@ (80008c8 <main+0x4c>)
 80008b4:	0019      	movs	r1, r3
 80008b6:	f7ff ff4a 	bl	800074e <SPI_SendData>
	return 0;
 80008ba:	2300      	movs	r3, #0
}
 80008bc:	0018      	movs	r0, r3
 80008be:	46bd      	mov	sp, r7
 80008c0:	b005      	add	sp, #20
 80008c2:	bd90      	pop	{r4, r7, pc}
 80008c4:	08000980 	.word	0x08000980
 80008c8:	40003800 	.word	0x40003800

080008cc <Reset_Handler>:

  .section .text.Reset_Handler
  .weak Reset_Handler
  .type Reset_Handler, %function
Reset_Handler:
  ldr   r0, =_estack
 80008cc:	480d      	ldr	r0, [pc, #52]	@ (8000904 <LoopForever+0x2>)
  mov   sp, r0          /* set stack pointer */
 80008ce:	4685      	mov	sp, r0
/* Call the clock system initialization function.*/
  bl  SystemInit
 80008d0:	e000      	b.n	80008d4 <Reset_Handler+0x8>
 80008d2:	bf00      	nop

/* Copy the data segment initializers from flash to SRAM */
  ldr r0, =_sdata
 80008d4:	480c      	ldr	r0, [pc, #48]	@ (8000908 <LoopForever+0x6>)
  ldr r1, =_edata
 80008d6:	490d      	ldr	r1, [pc, #52]	@ (800090c <LoopForever+0xa>)
  ldr r2, =_sidata
 80008d8:	4a0d      	ldr	r2, [pc, #52]	@ (8000910 <LoopForever+0xe>)
  movs r3, #0
 80008da:	2300      	movs	r3, #0
  b LoopCopyDataInit
 80008dc:	e002      	b.n	80008e4 <LoopCopyDataInit>

080008de <CopyDataInit>:

CopyDataInit:
  ldr r4, [r2, r3]
 80008de:	58d4      	ldr	r4, [r2, r3]
  str r4, [r0, r3]
 80008e0:	50c4      	str	r4, [r0, r3]
  adds r3, r3, #4
 80008e2:	3304      	adds	r3, #4

080008e4 <LoopCopyDataInit>:

LoopCopyDataInit:
  adds r4, r0, r3
 80008e4:	18c4      	adds	r4, r0, r3
  cmp r4, r1
 80008e6:	428c      	cmp	r4, r1
  bcc CopyDataInit
 80008e8:	d3f9      	bcc.n	80008de <CopyDataInit>

/* Zero fill the bss segment. */
  ldr r2, =_sbss
 80008ea:	4a0a      	ldr	r2, [pc, #40]	@ (8000914 <LoopForever+0x12>)
  ldr r4, =_ebss
 80008ec:	4c0a      	ldr	r4, [pc, #40]	@ (8000918 <LoopForever+0x16>)
  movs r3, #0
 80008ee:	2300      	movs	r3, #0
  b LoopFillZerobss
 80008f0:	e001      	b.n	80008f6 <LoopFillZerobss>

080008f2 <FillZerobss>:

FillZerobss:
  str  r3, [r2]
 80008f2:	6013      	str	r3, [r2, #0]
  adds r2, r2, #4
 80008f4:	3204      	adds	r2, #4

080008f6 <LoopFillZerobss>:

LoopFillZerobss:
  cmp r2, r4
 80008f6:	42a2      	cmp	r2, r4
  bcc FillZerobss
 80008f8:	d3fb      	bcc.n	80008f2 <FillZerobss>

/* Call static constructors */
  bl __libc_init_array
 80008fa:	f000 f811 	bl	8000920 <__libc_init_array>
/* Call the application's entry point.*/
  bl main
 80008fe:	f7ff ffbd 	bl	800087c <main>

08000902 <LoopForever>:

LoopForever:
  b LoopForever
 8000902:	e7fe      	b.n	8000902 <LoopForever>
  ldr   r0, =_estack
 8000904:	20002000 	.word	0x20002000
  ldr r0, =_sdata
 8000908:	20000000 	.word	0x20000000
  ldr r1, =_edata
 800090c:	20000000 	.word	0x20000000
  ldr r2, =_sidata
 8000910:	08000994 	.word	0x08000994
  ldr r2, =_sbss
 8000914:	20000000 	.word	0x20000000
  ldr r4, =_ebss
 8000918:	2000001c 	.word	0x2000001c

0800091c <ADC_IRQHandler>:
 * @retval : None
*/
  .section .text.Default_Handler,"ax",%progbits
Default_Handler:
Infinite_Loop:
  b Infinite_Loop
 800091c:	e7fe      	b.n	800091c <ADC_IRQHandler>
	...

08000920 <__libc_init_array>:
 8000920:	b570      	push	{r4, r5, r6, lr}
 8000922:	2600      	movs	r6, #0
 8000924:	4c0c      	ldr	r4, [pc, #48]	@ (8000958 <__libc_init_array+0x38>)
 8000926:	4d0d      	ldr	r5, [pc, #52]	@ (800095c <__libc_init_array+0x3c>)
 8000928:	1b64      	subs	r4, r4, r5
 800092a:	10a4      	asrs	r4, r4, #2
 800092c:	42a6      	cmp	r6, r4
 800092e:	d109      	bne.n	8000944 <__libc_init_array+0x24>
 8000930:	2600      	movs	r6, #0
 8000932:	f000 f819 	bl	8000968 <_init>
 8000936:	4c0a      	ldr	r4, [pc, #40]	@ (8000960 <__libc_init_array+0x40>)
 8000938:	4d0a      	ldr	r5, [pc, #40]	@ (8000964 <__libc_init_array+0x44>)
 800093a:	1b64      	subs	r4, r4, r5
 800093c:	10a4      	asrs	r4, r4, #2
 800093e:	42a6      	cmp	r6, r4
 8000940:	d105      	bne.n	800094e <__libc_init_array+0x2e>
 8000942:	bd70      	pop	{r4, r5, r6, pc}
 8000944:	00b3      	lsls	r3, r6, #2
 8000946:	58eb      	ldr	r3, [r5, r3]
 8000948:	4798      	blx	r3
 800094a:	3601      	adds	r6, #1
 800094c:	e7ee      	b.n	800092c <__libc_init_array+0xc>
 800094e:	00b3      	lsls	r3, r6, #2
 8000950:	58eb      	ldr	r3, [r5, r3]
 8000952:	4798      	blx	r3
 8000954:	3601      	adds	r6, #1
 8000956:	e7f2      	b.n	800093e <__libc_init_array+0x1e>
 8000958:	0800098c 	.word	0x0800098c
 800095c:	0800098c 	.word	0x0800098c
 8000960:	08000990 	.word	0x08000990
 8000964:	0800098c 	.word	0x0800098c

08000968 <_init>:
 8000968:	b5f8      	push	{r3, r4, r5, r6, r7, lr}
 800096a:	46c0      	nop			@ (mov r8, r8)
 800096c:	bcf8      	pop	{r3, r4, r5, r6, r7}
 800096e:	bc08      	pop	{r3}
 8000970:	469e      	mov	lr, r3
 8000972:	4770      	bx	lr

08000974 <_fini>:
 8000974:	b5f8      	push	{r3, r4, r5, r6, r7, lr}
 8000976:	46c0      	nop			@ (mov r8, r8)
 8000978:	bcf8      	pop	{r3, r4, r5, r6, r7}
 800097a:	bc08      	pop	{r3}
 800097c:	469e      	mov	lr, r3
 800097e:	4770      	bx	lr
